target datalayout = "e-m:e-p270:32:32-p271:32:32-p272:64:64-i64:64-i128:128-f80:128-n8:16:32:64-S128"
target triple = "x86_64-pc-linux-gnu"

%struct.nghttp2_hd_entry = type { %struct.nghttp2_hd_nv, %struct.nghttp2_nv, ptr, i32, i32 }
%struct.nghttp2_hd_nv = type { ptr, ptr, i32, i8 }
%struct.nghttp2_nv = type { ptr, ptr, i64, i64, i8 }
%struct.nghttp2_rcbuf = type { ptr, ptr, ptr, i64, i32 }

; Function Attrs: nounwind uwtable
define dso_local void @nghttp2_hd_entry_init(ptr noundef %0, ptr noundef %1) #0 {
  %3 = alloca ptr, align 8
  %4 = alloca ptr, align 8
  store ptr %0, ptr %3, align 8, !tbaa !4
  store ptr %1, ptr %4, align 8, !tbaa !9
  %5 = load ptr, ptr %3, align 8, !tbaa !4
  %6 = getelementptr inbounds nuw %struct.nghttp2_hd_entry, ptr %5, i32 0, i32 0
  %7 = load ptr, ptr %4, align 8, !tbaa !9
  call void @llvm.memcpy.p0.p0.i64(ptr align 8 %6, ptr align 8 %7, i64 24, i1 false), !tbaa.struct !10
  %8 = load ptr, ptr %4, align 8, !tbaa !9
  %9 = getelementptr inbounds nuw %struct.nghttp2_hd_nv, ptr %8, i32 0, i32 0
  %10 = load ptr, ptr %9, align 8, !tbaa !16
  %11 = getelementptr inbounds nuw %struct.nghttp2_rcbuf, ptr %10, i32 0, i32 2
  %12 = load ptr, ptr %11, align 8, !tbaa !18
  %13 = load ptr, ptr %3, align 8, !tbaa !4
  %14 = getelementptr inbounds nuw %struct.nghttp2_hd_entry, ptr %13, i32 0, i32 1
  %15 = getelementptr inbounds nuw %struct.nghttp2_nv, ptr %14, i32 0, i32 0
  store ptr %12, ptr %15, align 8, !tbaa !22
  %16 = load ptr, ptr %4, align 8, !tbaa !9
  %17 = getelementptr inbounds nuw %struct.nghttp2_hd_nv, ptr %16, i32 0, i32 0
  %18 = load ptr, ptr %17, align 8, !tbaa !16
  %19 = getelementptr inbounds nuw %struct.nghttp2_rcbuf, ptr %18, i32 0, i32 3
  %20 = load i64, ptr %19, align 8, !tbaa !25
  %21 = load ptr, ptr %3, align 8, !tbaa !4
  %22 = getelementptr inbounds nuw %struct.nghttp2_hd_entry, ptr %21, i32 0, i32 1
  %23 = getelementptr inbounds nuw %struct.nghttp2_nv, ptr %22, i32 0, i32 2
  store i64 %20, ptr %23, align 8, !tbaa !26
  %24 = load ptr, ptr %4, align 8, !tbaa !9
  %25 = getelementptr inbounds nuw %struct.nghttp2_hd_nv, ptr %24, i32 0, i32 1
  %26 = load ptr, ptr %25, align 8, !tbaa !27
  %27 = getelementptr inbounds nuw %struct.nghttp2_rcbuf, ptr %26, i32 0, i32 2
  %28 = load ptr, ptr %27, align 8, !tbaa !18
  %29 = load ptr, ptr %3, align 8, !tbaa !4
  %30 = getelementptr inbounds nuw %struct.nghttp2_hd_entry, ptr %29, i32 0, i32 1
  %31 = getelementptr inbounds nuw %struct.nghttp2_nv, ptr %30, i32 0, i32 1
  store ptr %28, ptr %31, align 8, !tbaa !28
  %32 = load ptr, ptr %4, align 8, !tbaa !9
  %33 = getelementptr inbounds nuw %struct.nghttp2_hd_nv, ptr %32, i32 0, i32 1
  %34 = load ptr, ptr %33, align 8, !tbaa !27
  %35 = getelementptr inbounds nuw %struct.nghttp2_rcbuf, ptr %34, i32 0, i32 3
  %36 = load i64, ptr %35, align 8, !tbaa !25
  %37 = load ptr, ptr %3, align 8, !tbaa !4
  %38 = getelementptr inbounds nuw %struct.nghttp2_hd_entry, ptr %37, i32 0, i32 1
  %39 = getelementptr inbounds nuw %struct.nghttp2_nv, ptr %38, i32 0, i32 3
  store i64 %36, ptr %39, align 8, !tbaa !29
  %40 = load ptr, ptr %4, align 8, !tbaa !9
  %41 = getelementptr inbounds nuw %struct.nghttp2_hd_nv, ptr %40, i32 0, i32 3
  %42 = load i8, ptr %41, align 4, !tbaa !30
  %43 = load ptr, ptr %3, align 8, !tbaa !4
  %44 = getelementptr inbounds nuw %struct.nghttp2_hd_entry, ptr %43, i32 0, i32 1
  %45 = getelementptr inbounds nuw %struct.nghttp2_nv, ptr %44, i32 0, i32 4
  store i8 %42, ptr %45, align 8, !tbaa !31
  %46 = load ptr, ptr %3, align 8, !tbaa !4
  %47 = getelementptr inbounds nuw %struct.nghttp2_hd_entry, ptr %46, i32 0, i32 2
  store ptr null, ptr %47, align 8, !tbaa !32
  %48 = load ptr, ptr %3, align 8, !tbaa !4
  %49 = getelementptr inbounds nuw %struct.nghttp2_hd_entry, ptr %48, i32 0, i32 4
  store i32 0, ptr %49, align 4, !tbaa !33
  %50 = load ptr, ptr %3, align 8, !tbaa !4
  %51 = getelementptr inbounds nuw %struct.nghttp2_hd_entry, ptr %50, i32 0, i32 0
  %52 = getelementptr inbounds nuw %struct.nghttp2_hd_nv, ptr %51, i32 0, i32 0
  %53 = load ptr, ptr %52, align 8, !tbaa !34
  call void @nghttp2_rcbuf_incref(ptr noundef %53)
  %54 = load ptr, ptr %3, align 8, !tbaa !4
  %55 = getelementptr inbounds nuw %struct.nghttp2_hd_entry, ptr %54, i32 0, i32 0
  %56 = getelementptr inbounds nuw %struct.nghttp2_hd_nv, ptr %55, i32 0, i32 1
  %57 = load ptr, ptr %56, align 8, !tbaa !35
  call void @nghttp2_rcbuf_incref(ptr noundef %57)
  ret void
}