; Function Attrs: nounwind uwtable
define dso_local void @nghttp2_hd_entry_init(ptr noundef captures(none) initializes((0, 57), (64, 72), (76, 80)) %0, ptr noundef readonly captures(none) %1) local_unnamed_addr #0 {
  tail call void @llvm.memcpy.p0.p0.i64(ptr noundef nonnull align 8 dereferenceable(24) %0, ptr noundef nonnull align 8 dereferenceable(24) %1, i64 24, i1 false), !tbaa.struct !4
  %3 = load ptr, ptr %1, align 8, !tbaa !13
  %4 = getelementptr inbounds nuw i8, ptr %3, i64 16
  %5 = load ptr, ptr %4, align 8, !tbaa !15
  %6 = getelementptr inbounds nuw i8, ptr %0, i64 24
  store ptr %5, ptr %6, align 8, !tbaa !19
  %7 = getelementptr inbounds nuw i8, ptr %3, i64 24
  %8 = load i64, ptr %7, align 8, !tbaa !23
  %9 = getelementptr inbounds nuw i8, ptr %0, i64 40
  store i64 %8, ptr %9, align 8, !tbaa !24
  %10 = getelementptr inbounds nuw i8, ptr %1, i64 8
  %11 = load ptr, ptr %10, align 8, !tbaa !25
  %12 = getelementptr inbounds nuw i8, ptr %11, i64 16
  %13 = load ptr, ptr %12, align 8, !tbaa !15
  %14 = getelementptr inbounds nuw i8, ptr %0, i64 32
  store ptr %13, ptr %14, align 8, !tbaa !26
  %15 = getelementptr inbounds nuw i8, ptr %11, i64 24
  %16 = load i64, ptr %15, align 8, !tbaa !23
  %17 = getelementptr inbounds nuw i8, ptr %0, i64 48
  store i64 %16, ptr %17, align 8, !tbaa !27
  %18 = getelementptr inbounds nuw i8, ptr %1, i64 20
  %19 = load i8, ptr %18, align 4, !tbaa !28
  %20 = getelementptr inbounds nuw i8, ptr %0, i64 56
  store i8 %19, ptr %20, align 8, !tbaa !29
  %21 = getelementptr inbounds nuw i8, ptr %0, i64 64
  store ptr null, ptr %21, align 8, !tbaa !30
  %22 = getelementptr inbounds nuw i8, ptr %0, i64 76
  store i32 0, ptr %22, align 4, !tbaa !31
  %23 = load ptr, ptr %0, align 8, !tbaa !32
  tail call void @nghttp2_rcbuf_incref(ptr noundef %23) #13
  %24 = getelementptr inbounds nuw i8, ptr %0, i64 8
  %25 = load ptr, ptr %24, align 8, !tbaa !33
  tail call void @nghttp2_rcbuf_incref(ptr noundef %25) #13
  ret void
}